target datalayout = "e-m:e-p270:32:32-p271:32:32-p272:64:64-i64:64-i128:128-f80:128-n8:16:32:64-S128"
target triple = "x86_64-pc-linux-gnu"

%struct.anon.1 = type { ptr, ptr, ptr }

@.str.12 = private unnamed_addr constant [32 x i8] c"../openssl/test/property_test.c\00", align 1
@.str.16 = private unnamed_addr constant [2 x i8] c"0\00", align 1
@.str.70 = private unnamed_addr constant [36 x i8] c"store = ossl_method_store_new(NULL)\00", align 1
@.str.148 = private unnamed_addr constant [7 x i8] c"colour\00", align 1
@.str.149 = private unnamed_addr constant [4 x i8] c"urn\00", align 1
@.str.150 = private unnamed_addr constant [7 x i8] c"clouds\00", align 1
@.str.151 = private unnamed_addr constant [4 x i8] c"pot\00", align 1
@.str.152 = private unnamed_addr constant [4 x i8] c"day\00", align 1
@.str.153 = private unnamed_addr constant [6 x i8] c"night\00", align 1
@.str.154 = private unnamed_addr constant [54 x i8] c"prop = ossl_parse_property(NULL, merge_tests[n].prop)\00", align 1
@.str.155 = private unnamed_addr constant [62 x i8] c"q_global = ossl_parse_query(NULL, merge_tests[n].q_global, 0)\00", align 1
@.str.156 = private unnamed_addr constant [60 x i8] c"q_local = ossl_parse_query(NULL, merge_tests[n].q_local, 0)\00", align 1
@.str.157 = private unnamed_addr constant [52 x i8] c"q_combined = ossl_property_merge(q_local, q_global)\00", align 1
@.str.158 = private unnamed_addr constant [44 x i8] c"ossl_property_match_count(q_combined, prop)\00", align 1

; Function Attrs: nounwind uwtable
define internal i32 @test_property_merge(i32 noundef %0) #0 {
  %2 = alloca i32, align 4
  %3 = alloca ptr, align 8
  %4 = alloca ptr, align 8
  %5 = alloca ptr, align 8
  %6 = alloca ptr, align 8
  %7 = alloca ptr, align 8
  %8 = alloca i32, align 4
  store i32 %0, ptr %2, align 4, !tbaa !9
  call void @llvm.lifetime.start.p0(i64 8, ptr %3) #6
  call void @llvm.lifetime.start.p0(i64 8, ptr %4) #6
  store ptr null, ptr %4, align 8, !tbaa !13
  call void @llvm.lifetime.start.p0(i64 8, ptr %5) #6
  store ptr null, ptr %5, align 8, !tbaa !13
  call void @llvm.lifetime.start.p0(i64 8, ptr %6) #6
  store ptr null, ptr %6, align 8, !tbaa !13
  call void @llvm.lifetime.start.p0(i64 8, ptr %7) #6
  store ptr null, ptr %7, align 8, !tbaa !13
  call void @llvm.lifetime.start.p0(i64 4, ptr %8) #6
  store i32 0, ptr %8, align 4, !tbaa !9
  %9 = call ptr @ossl_method_store_new(ptr noundef null)
  store ptr %9, ptr %3, align 8, !tbaa !4
  %10 = call i32 @test_ptr(ptr noundef @.str.12, i32 noundef 274, ptr noundef @.str.70, ptr noundef %9)
  %11 = icmp ne i32 %10, 0
  br i1 %11, label %12, label %55

12:                                               ; preds = %1
  %13 = call i32 (ptr, ...) @add_property_names(ptr noundef @.str.148, ptr noundef @.str.149, ptr noundef @.str.150, ptr noundef @.str.151, ptr noundef @.str.152, ptr noundef @.str.153, ptr noundef null)
  %14 = icmp ne i32 %13, 0
  br i1 %14, label %15, label %55

15:                                               ; preds = %12
  %16 = load i32, ptr %2, align 4, !tbaa !9
  %17 = sext i32 %16 to i64
  %18 = getelementptr inbounds [14 x %struct.anon.1], ptr @merge_tests, i64 0, i64 %17
  %19 = getelementptr inbounds nuw %struct.anon.1, ptr %18, i32 0, i32 2
  %20 = load ptr, ptr %19, align 8, !tbaa !24
  %21 = call ptr @ossl_parse_property(ptr noundef null, ptr noundef %20)
  store ptr %21, ptr %7, align 8, !tbaa !13
  %22 = call i32 @test_ptr(ptr noundef @.str.12, i32 noundef 277, ptr noundef @.str.154, ptr noundef %21)
  %23 = icmp ne i32 %22, 0
  br i1 %23, label %24, label %55

24:                                               ; preds = %15
  %25 = load i32, ptr %2, align 4, !tbaa !9
  %26 = sext i32 %25 to i64
  %27 = getelementptr inbounds [14 x %struct.anon.1], ptr @merge_tests, i64 0, i64 %26
  %28 = getelementptr inbounds nuw %struct.anon.1, ptr %27, i32 0, i32 0
  %29 = load ptr, ptr %28, align 8, !tbaa !26
  %30 = call ptr @ossl_parse_query(ptr noundef null, ptr noundef %29, i32 noundef 0)
  store ptr %30, ptr %4, align 8, !tbaa !13
  %31 = call i32 @test_ptr(ptr noundef @.str.12, i32 noundef 279, ptr noundef @.str.155, ptr noundef %30)
  %32 = icmp ne i32 %31, 0
  br i1 %32, label %33, label %55

33:                                               ; preds = %24
  %34 = load i32, ptr %2, align 4, !tbaa !9
  %35 = sext i32 %34 to i64
  %36 = getelementptr inbounds [14 x %struct.anon.1], ptr @merge_tests, i64 0, i64 %35
  %37 = getelementptr inbounds nuw %struct.anon.1, ptr %36, i32 0, i32 1
  %38 = load ptr, ptr %37, align 8, !tbaa !27
  %39 = call ptr @ossl_parse_query(ptr noundef null, ptr noundef %38, i32 noundef 0)
  store ptr %39, ptr %5, align 8, !tbaa !13
  %40 = call i32 @test_ptr(ptr noundef @.str.12, i32 noundef 280, ptr noundef @.str.156, ptr noundef %39)
  %41 = icmp ne i32 %40, 0
  br i1 %41, label %42, label %55

42:                                               ; preds = %33
  %43 = load ptr, ptr %5, align 8, !tbaa !13
  %44 = load ptr, ptr %4, align 8, !tbaa !13
  %45 = call ptr @ossl_property_merge(ptr noundef %43, ptr noundef %44)
  store ptr %45, ptr %6, align 8, !tbaa !13
  %46 = call i32 @test_ptr(ptr noundef @.str.12, i32 noundef 281, ptr noundef @.str.157, ptr noundef %45)
  %47 = icmp ne i32 %46, 0
  br i1 %47, label %48, label %55

48:                                               ; preds = %42
  %49 = load ptr, ptr %6, align 8, !tbaa !13
  %50 = load ptr, ptr %7, align 8, !tbaa !13
  %51 = call i32 @ossl_property_match_count(ptr noundef %49, ptr noundef %50)
  %52 = call i32 @test_int_ge(ptr noundef @.str.12, i32 noundef 282, ptr noundef @.str.158, ptr noundef @.str.16, i32 noundef %51, i32 noundef 0)
  %53 = icmp ne i32 %52, 0
  br i1 %53, label %54, label %55

54:                                               ; preds = %48
  store i32 1, ptr %8, align 4, !tbaa !9
  br label %55

55:                                               ; preds = %54, %48, %42, %33, %24, %15, %12, %1
  %56 = load ptr, ptr %4, align 8, !tbaa !13
  call void @ossl_property_free(ptr noundef %56)
  %57 = load ptr, ptr %5, align 8, !tbaa !13
  call void @ossl_property_free(ptr noundef %57)
  %58 = load ptr, ptr %6, align 8, !tbaa !13
  call void @ossl_property_free(ptr noundef %58)
  %59 = load ptr, ptr %7, align 8, !tbaa !13
  call void @ossl_property_free(ptr noundef %59)
  %60 = load ptr, ptr %3, align 8, !tbaa !4
  call void @ossl_method_store_free(ptr noundef %60)
  %61 = load i32, ptr %8, align 4, !tbaa !9
  call void @llvm.lifetime.end.p0(i64 4, ptr %8) #6
  call void @llvm.lifetime.end.p0(i64 8, ptr %7) #6
  call void @llvm.lifetime.end.p0(i64 8, ptr %6) #6
  call void @llvm.lifetime.end.p0(i64 8, ptr %5) #6
  call void @llvm.lifetime.end.p0(i64 8, ptr %4) #6
  call void @llvm.lifetime.end.p0(i64 8, ptr %3) #6
  ret i32 %61
}