; Function Attrs: nounwind uwtable
define internal range(i32 0, 2) i32 @test_property_merge(i32 noundef %0) #0 {
  %2 = tail call ptr @ossl_method_store_new(ptr noundef null) #6
  %3 = tail call i32 @test_ptr(ptr noundef nonnull @.str.12, i32 noundef 274, ptr noundef nonnull @.str.70, ptr noundef %2) #6
  %.not = icmp eq i32 %3, 0
  br i1 %.not, label %28, label %4

4:                                                ; preds = %1
  %5 = tail call i32 (ptr, ...) @add_property_names(ptr noundef nonnull @.str.148, ptr noundef nonnull @.str.149, ptr noundef nonnull @.str.150, ptr noundef nonnull @.str.151, ptr noundef nonnull @.str.152, ptr noundef nonnull @.str.153, ptr noundef null)
  %.not16 = icmp eq i32 %5, 0
  br i1 %.not16, label %28, label %6

6:                                                ; preds = %4
  %7 = sext i32 %0 to i64
  %8 = getelementptr inbounds [14 x %struct.anon.1], ptr @merge_tests, i64 0, i64 %7
  %9 = getelementptr inbounds nuw i8, ptr %8, i64 16
  %10 = load ptr, ptr %9, align 8, !tbaa !16
  %11 = tail call ptr @ossl_parse_property(ptr noundef null, ptr noundef %10) #6
  %12 = tail call i32 @test_ptr(ptr noundef nonnull @.str.12, i32 noundef 277, ptr noundef nonnull @.str.154, ptr noundef %11) #6
  %.not17 = icmp eq i32 %12, 0
  br i1 %.not17, label %28, label %13

13:                                               ; preds = %6
  %14 = load ptr, ptr %8, align 8, !tbaa !18
  %15 = tail call ptr @ossl_parse_query(ptr noundef null, ptr noundef %14, i32 noundef 0) #6
  %16 = tail call i32 @test_ptr(ptr noundef nonnull @.str.12, i32 noundef 279, ptr noundef nonnull @.str.155, ptr noundef %15) #6
  %.not18 = icmp eq i32 %16, 0
  br i1 %.not18, label %28, label %17

17:                                               ; preds = %13
  %18 = getelementptr inbounds nuw i8, ptr %8, i64 8
  %19 = load ptr, ptr %18, align 8, !tbaa !19
  %20 = tail call ptr @ossl_parse_query(ptr noundef null, ptr noundef %19, i32 noundef 0) #6
  %21 = tail call i32 @test_ptr(ptr noundef nonnull @.str.12, i32 noundef 280, ptr noundef nonnull @.str.156, ptr noundef %20) #6
  %.not19 = icmp eq i32 %21, 0
  br i1 %.not19, label %28, label %22

22:                                               ; preds = %17
  %23 = tail call ptr @ossl_property_merge(ptr noundef %20, ptr noundef %15) #6
  %24 = tail call i32 @test_ptr(ptr noundef nonnull @.str.12, i32 noundef 281, ptr noundef nonnull @.str.157, ptr noundef %23) #6
  %.not20 = icmp eq i32 %24, 0
  br i1 %.not20, label %28, label %25

25:                                               ; preds = %22
  %26 = tail call i32 @ossl_property_match_count(ptr noundef %23, ptr noundef %11) #6
  %27 = tail call i32 @test_int_ge(ptr noundef nonnull @.str.12, i32 noundef 282, ptr noundef nonnull @.str.158, ptr noundef nonnull @.str.16, i32 noundef %26, i32 noundef 0) #6
  %.not21 = icmp ne i32 %27, 0
  %spec.select = zext i1 %.not21 to i32
  br label %28

28:                                               ; preds = %25, %22, %17, %13, %6, %4, %1
  %.015 = phi ptr [ %15, %22 ], [ %15, %17 ], [ %15, %13 ], [ null, %6 ], [ null, %4 ], [ null, %1 ], [ %15, %25 ]
  %.014 = phi ptr [ %20, %22 ], [ %20, %17 ], [ null, %13 ], [ null, %6 ], [ null, %4 ], [ null, %1 ], [ %20, %25 ]
  %.013 = phi ptr [ %23, %22 ], [ null, %17 ], [ null, %13 ], [ null, %6 ], [ null, %4 ], [ null, %1 ], [ %23, %25 ]
  %.012 = phi ptr [ %11, %22 ], [ %11, %17 ], [ %11, %13 ], [ %11, %6 ], [ null, %4 ], [ null, %1 ], [ %11, %25 ]
  %.0 = phi i32 [ 0, %22 ], [ 0, %17 ], [ 0, %13 ], [ 0, %6 ], [ 0, %4 ], [ 0, %1 ], [ %spec.select, %25 ]
  tail call void @ossl_property_free(ptr noundef %.015) #6
  tail call void @ossl_property_free(ptr noundef %.014) #6
  tail call void @ossl_property_free(ptr noundef %.013) #6
  tail call void @ossl_property_free(ptr noundef %.012) #6
  tail call void @ossl_method_store_free(ptr noundef %2) #6
  ret i32 %.0
}